; Function Attrs: nounwind uwtable
define zeroext range(i8 0, 2) i8 @l_Array_anyMUnsafe_any___at_Lean_Elab_PartialFixpoint_registerEqnsInfo___spec__1(ptr noundef readonly captures(none) %0, i64 noundef %1, i64 noundef %2) local_unnamed_addr #0 {
  %.not30 = icmp eq i64 %1, %2
  br i1 %.not30, label %lean_dec.exit._crit_edge, label %.lr.ph

.lr.ph:                                           ; preds = %3
  %4 = getelementptr inbounds nuw i8, ptr %0, i64 24
  br label %7

5:                                                ; preds = %lean_dec.exit
  %6 = add i64 %.01531, 1
  %.not = icmp eq i64 %6, %2
  br i1 %.not, label %lean_dec.exit._crit_edge, label %7

7:                                                ; preds = %.lr.ph, %5
  %.01531 = phi i64 [ %1, %.lr.ph ], [ %6, %5 ]
  %8 = getelementptr inbounds nuw [0 x ptr], ptr %4, i64 0, i64 %.01531
  %9 = load ptr, ptr %8, align 8, !tbaa !4
  %10 = ptrtoint ptr %9 to i64
  %11 = and i64 %10, 1
  %.not.i20 = icmp eq i64 %11, 0
  br i1 %.not.i20, label %12, label %lean_array_uget.exit

12:                                               ; preds = %7
  %.val.i.i = load i32, ptr %9, align 4, !tbaa !8
  %13 = icmp sgt i32 %.val.i.i, 0
  br i1 %13, label %14, label %16, !prof !11

14:                                               ; preds = %12
  %15 = add nuw i32 %.val.i.i, 1
  store i32 %15, ptr %9, align 4, !tbaa !8
  br label %22

16:                                               ; preds = %12
  %.not.i.i = icmp eq i32 %.val.i.i, 0
  br i1 %.not.i.i, label %.thread21, label %19

.thread21:                                        ; preds = %16
  %17 = getelementptr inbounds nuw i8, ptr %9, i64 64
  %18 = load i8, ptr %17, align 1, !tbaa !14
  br label %lean_dec.exit

19:                                               ; preds = %16
  tail call void @lean_inc_ref_cold(ptr noundef nonnull %9) #5
  %.pr = load i32, ptr %9, align 4, !tbaa !8
  br label %22

lean_array_uget.exit:                             ; preds = %7
  %20 = getelementptr inbounds nuw i8, ptr %9, i64 64
  %21 = load i8, ptr %20, align 1, !tbaa !14
  br label %lean_dec.exit

22:                                               ; preds = %14, %19
  %23 = phi i32 [ %15, %14 ], [ %.pr, %19 ]
  %24 = getelementptr inbounds nuw i8, ptr %9, i64 64
  %25 = load i8, ptr %24, align 1, !tbaa !14
  %26 = icmp sgt i32 %23, 1
  br i1 %26, label %27, label %29, !prof !15

27:                                               ; preds = %22
  %28 = add nsw i32 %23, -1
  store i32 %28, ptr %9, align 4, !tbaa !8
  br label %lean_dec.exit

29:                                               ; preds = %22
  %.not.i = icmp eq i32 %23, 0
  br i1 %.not.i, label %lean_dec.exit, label %30

30:                                               ; preds = %29
  tail call void @lean_dec_ref_cold(ptr noundef nonnull %9) #5
  br label %lean_dec.exit

lean_dec.exit:                                    ; preds = %30, %29, %27, %.thread21, %lean_array_uget.exit
  %31 = phi i8 [ %21, %lean_array_uget.exit ], [ %25, %27 ], [ %25, %29 ], [ %25, %30 ], [ %18, %.thread21 ]
  %32 = tail call zeroext i8 @l_Lean_Elab_DefKind_isTheorem(i8 noundef zeroext %31) #5
  %33 = icmp eq i8 %32, 0
  br i1 %33, label %lean_dec.exit._crit_edge, label %5

lean_dec.exit._crit_edge:                         ; preds = %5, %lean_dec.exit, %3
  %.2.ph = phi i8 [ 0, %3 ], [ 1, %lean_dec.exit ], [ 0, %5 ]
  ret i8 %.2.ph
}